; Function Attrs: mustprogress nofree nounwind willreturn memory(read, inaccessiblemem: none) uwtable
define noundef i32 @_ZNK19OpenColorIO_v2_5dev6Config19getDisplayAllByNameEPKc(ptr noundef nonnull readonly align 8 captures(none) dereferenceable(8) %0, ptr noundef readonly %1) local_unnamed_addr #21 align 2 personality ptr @__gxx_personality_v0 {
  %.not = icmp eq ptr %1, null
  br i1 %.not, label %.loopexit, label %3

3:                                                ; preds = %2
  %4 = load i8, ptr %1, align 1, !tbaa !19
  %.not12 = icmp eq i8 %4, 0
  br i1 %.not12, label %.loopexit, label %.preheader

.preheader:                                       ; preds = %3
  %5 = load ptr, ptr %0, align 8, !tbaa !34
  %6 = getelementptr inbounds nuw i8, ptr %5, i64 376
  %7 = getelementptr inbounds nuw i8, ptr %5, i64 384
  %8 = load ptr, ptr %7, align 8, !tbaa !229
  %9 = load ptr, ptr %6, align 8, !tbaa !228
  %.not1315.not = icmp eq ptr %8, %9
  br i1 %.not1315.not, label %.loopexit, label %.lr.ph.preheader

.lr.ph.preheader:                                 ; preds = %.preheader
  %10 = ptrtoint ptr %8 to i64
  %11 = ptrtoint ptr %9 to i64
  %12 = sub i64 %10, %11
  %13 = sdiv exact i64 %12, 88
  %umax = tail call i64 @llvm.umax.i64(i64 %13, i64 1)
  br label %.lr.ph

.lr.ph:                                           ; preds = %.lr.ph.preheader, %20
  %.0916 = phi i64 [ %21, %20 ], [ 0, %.lr.ph.preheader ]
  %14 = getelementptr inbounds nuw %"struct.std::pair.96", ptr %9, i64 %.0916
  %15 = load ptr, ptr %14, align 8, !tbaa !29
  %16 = tail call i32 @strcmp(ptr noundef nonnull dereferenceable(1) %1, ptr noundef nonnull dereferenceable(1) %15) #39
  %17 = icmp eq i32 %16, 0
  br i1 %17, label %18, label %20

18:                                               ; preds = %.lr.ph
  %19 = trunc i64 %.0916 to i32
  br label %.loopexit

20:                                               ; preds = %.lr.ph
  %21 = add nuw i64 %.0916, 1
  %exitcond.not = icmp eq i64 %21, %umax
  br i1 %exitcond.not, label %.loopexit, label %.lr.ph, !llvm.loop !666

.loopexit:                                        ; preds = %20, %.preheader, %18, %2, %3
  %.010 = phi i32 [ -1, %3 ], [ -1, %2 ], [ %19, %18 ], [ -1, %.preheader ], [ -1, %20 ]
  ret i32 %.010
}